#include <math.h>
#include <stdio.h>
#include <stdlib.h>
#include <string.h>
#include <iostream>
using namespace std;

int n, k, m, a = 1;
void go (int p)
{
	p--;
	if (m % (n - 1) == 0 && m / (n - 1) != 0 && p >= 0)
	{
		m = m * n / (n - 1) + k;
		go (p);
	}
	else 
		if (p >= 0)
			a = 0;
}
int main()
{
	cin >> n >> k;
	double x, y = n;
	x = pow(y, n);
	for (int j = 1; j <= x ; j++)
	{
		a = 1;
		m = j;
		go (n);
		if (a == 1)
		{
			cout << m << endl;
			break;
		}
	}
	return 0;
}
