; ModuleID = 'source-C-CXX/53/1779.cpp'
source_filename = "source-C-CXX/53/1779.cpp"
target datalayout = "e-m:e-p270:32:32-p271:32:32-p272:64:64-i64:64-f80:128-n8:16:32:64-S128"
target triple = "x86_64-pc-linux-gnu"

%"class.std::ios_base::Init" = type { i8 }
%"class.std::basic_istream" = type { i32 (...)**, i64, %"class.std::basic_ios" }
%"class.std::basic_ios" = type { %"class.std::ios_base", %"class.std::basic_ostream"*, i8, i8, %"class.std::basic_streambuf"*, %"class.std::ctype"*, %"class.std::num_put"*, %"class.std::num_get"* }
%"class.std::ios_base" = type { i32 (...)**, i64, i64, i32, i32, i32, %"struct.std::ios_base::_Callback_list"*, %"struct.std::ios_base::_Words", [8 x %"struct.std::ios_base::_Words"], i32, %"struct.std::ios_base::_Words"*, %"class.std::locale" }
%"struct.std::ios_base::_Callback_list" = type { %"struct.std::ios_base::_Callback_list"*, void (i32, %"class.std::ios_base"*, i32)*, i32, i32 }
%"struct.std::ios_base::_Words" = type { i8*, i64 }
%"class.std::locale" = type { %"class.std::locale::_Impl"* }
%"class.std::locale::_Impl" = type { i32, %"class.std::locale::facet"**, i64, %"class.std::locale::facet"**, i8** }
%"class.std::locale::facet" = type <{ i32 (...)**, i32, [4 x i8] }>
%"class.std::basic_ostream" = type { i32 (...)**, %"class.std::basic_ios" }
%"class.std::basic_streambuf" = type { i32 (...)**, i8*, i8*, i8*, i8*, i8*, i8*, %"class.std::locale" }
%"class.std::ctype" = type <{ %"class.std::locale::facet.base", [4 x i8], %struct.__locale_struct*, i8, [7 x i8], i32*, i32*, i16*, i8, [256 x i8], [256 x i8], i8, [6 x i8] }>
%"class.std::locale::facet.base" = type <{ i32 (...)**, i32 }>
%struct.__locale_struct = type { [13 x %struct.__locale_data*], i16*, i32*, i32*, [13 x i8*] }
%struct.__locale_data = type opaque
%"class.std::num_put" = type { %"class.std::locale::facet.base", [4 x i8] }
%"class.std::num_get" = type { %"class.std::locale::facet.base", [4 x i8] }

@_ZStL8__ioinit = internal global %"class.std::ios_base::Init" zeroinitializer, align 1
@__dso_handle = external hidden global i8
@n = dso_local global i32 0, align 4
@k = dso_local global i32 0, align 4
@m = dso_local local_unnamed_addr global i32 0, align 4
@a = dso_local local_unnamed_addr global i32 1, align 4
@_ZSt3cin = external global %"class.std::basic_istream", align 8
@_ZSt4cout = external global %"class.std::basic_ostream", align 8
@llvm.global_ctors = appending global [1 x { i32, void ()*, i8* }] [{ i32, void ()*, i8* } { i32 65535, void ()* @_GLOBAL__sub_I_1779.cpp, i8* null }]

declare void @_ZNSt8ios_base4InitC1Ev(%"class.std::ios_base::Init"* nonnull align 1 dereferenceable(1)) unnamed_addr #0

; Function Attrs: nounwind
declare void @_ZNSt8ios_base4InitD1Ev(%"class.std::ios_base::Init"* nonnull align 1 dereferenceable(1)) unnamed_addr #1

; Function Attrs: nofree nounwind
declare i32 @__cxa_atexit(void (i8*)*, i8*, i8*) local_unnamed_addr #2

; Function Attrs: mustprogress nofree nosync nounwind sspstrong uwtable
define dso_local void @_Z2goi(i32 %0) local_unnamed_addr #3 {
  %2 = load i32, i32* @n, align 4, !tbaa !5
  %3 = add nsw i32 %2, -1
  %4 = load i32, i32* @k, align 4
  %5 = load i32, i32* @m, align 4, !tbaa !5
  %6 = srem i32 %5, %3
  %7 = icmp eq i32 %6, 0
  br i1 %7, label %8, label %22

8:                                                ; preds = %1, %16
  %9 = phi i32 [ %19, %16 ], [ %5, %1 ]
  %10 = phi i32 [ %11, %16 ], [ %0, %1 ]
  %11 = add nsw i32 %10, -1
  %12 = sdiv i32 %9, %3
  %13 = icmp ne i32 %12, 0
  %14 = icmp sgt i32 %10, 0
  %15 = select i1 %13, i1 %14, i1 false
  br i1 %15, label %16, label %22

16:                                               ; preds = %8
  %17 = mul nsw i32 %2, %9
  %18 = sdiv i32 %17, %3
  %19 = add nsw i32 %4, %18
  store i32 %19, i32* @m, align 4, !tbaa !5
  %20 = srem i32 %19, %3
  %21 = icmp eq i32 %20, 0
  br i1 %21, label %8, label %22

22:                                               ; preds = %16, %8, %1
  %23 = phi i32 [ %0, %1 ], [ %10, %8 ], [ %11, %16 ]
  %24 = icmp sgt i32 %23, 0
  br i1 %24, label %25, label %26

25:                                               ; preds = %22
  store i32 0, i32* @a, align 4, !tbaa !5
  br label %26

26:                                               ; preds = %22, %25
  ret void
}

; Function Attrs: mustprogress norecurse sspstrong uwtable
define dso_local i32 @main() local_unnamed_addr #4 {
  %1 = tail call nonnull align 8 dereferenceable(16) %"class.std::basic_istream"* @_ZNSirsERi(%"class.std::basic_istream"* nonnull align 8 dereferenceable(16) @_ZSt3cin, i32* nonnull align 4 dereferenceable(4) @n)
  %2 = tail call nonnull align 8 dereferenceable(16) %"class.std::basic_istream"* @_ZNSirsERi(%"class.std::basic_istream"* nonnull align 8 dereferenceable(16) %1, i32* nonnull align 4 dereferenceable(4) @k)
  %3 = load i32, i32* @n, align 4, !tbaa !5
  %4 = sitofp i32 %3 to double
  %5 = tail call double @pow(double %4, double %4) #8
  %6 = load i32, i32* @n, align 4
  %7 = add nsw i32 %6, -1
  %8 = load i32, i32* @k, align 4
  %9 = fcmp ult double %5, 1.000000e+00
  br i1 %9, label %68, label %10

10:                                               ; preds = %0, %63
  %11 = phi i32 [ %64, %63 ], [ 1, %0 ]
  %12 = srem i32 %11, %7
  %13 = icmp eq i32 %12, 0
  br i1 %13, label %14, label %28

14:                                               ; preds = %10, %22
  %15 = phi i32 [ %25, %22 ], [ %11, %10 ]
  %16 = phi i32 [ %17, %22 ], [ %6, %10 ]
  %17 = add nsw i32 %16, -1
  %18 = sdiv i32 %15, %7
  %19 = icmp ne i32 %18, 0
  %20 = icmp sgt i32 %16, 0
  %21 = select i1 %19, i1 %20, i1 false
  br i1 %21, label %22, label %28

22:                                               ; preds = %14
  %23 = mul nsw i32 %15, %6
  %24 = sdiv i32 %23, %7
  %25 = add nsw i32 %24, %8
  %26 = srem i32 %25, %7
  %27 = icmp eq i32 %26, 0
  br i1 %27, label %14, label %28

28:                                               ; preds = %22, %14, %10
  %29 = phi i32 [ %11, %10 ], [ %25, %22 ], [ %15, %14 ]
  %30 = phi i32 [ %6, %10 ], [ %17, %22 ], [ %16, %14 ]
  %31 = icmp sgt i32 %30, 0
  br i1 %31, label %63, label %32

32:                                               ; preds = %28
  store i32 1, i32* @a, align 4, !tbaa !5
  store i32 %29, i32* @m, align 4, !tbaa !5
  %33 = tail call nonnull align 8 dereferenceable(8) %"class.std::basic_ostream"* @_ZNSolsEi(%"class.std::basic_ostream"* nonnull align 8 dereferenceable(8) @_ZSt4cout, i32 %29)
  %34 = bitcast %"class.std::basic_ostream"* %33 to i8**
  %35 = load i8*, i8** %34, align 8, !tbaa !9
  %36 = getelementptr i8, i8* %35, i64 -24
  %37 = bitcast i8* %36 to i64*
  %38 = load i64, i64* %37, align 8
  %39 = bitcast %"class.std::basic_ostream"* %33 to i8*
  %40 = add nsw i64 %38, 240
  %41 = getelementptr inbounds i8, i8* %39, i64 %40
  %42 = bitcast i8* %41 to %"class.std::ctype"**
  %43 = load %"class.std::ctype"*, %"class.std::ctype"** %42, align 8, !tbaa !11
  %44 = icmp eq %"class.std::ctype"* %43, null
  br i1 %44, label %45, label %46

45:                                               ; preds = %32
  tail call void @_ZSt16__throw_bad_castv() #9
  unreachable

46:                                               ; preds = %32
  %47 = getelementptr inbounds %"class.std::ctype", %"class.std::ctype"* %43, i64 0, i32 8
  %48 = load i8, i8* %47, align 8, !tbaa !15
  %49 = icmp eq i8 %48, 0
  br i1 %49, label %53, label %50

50:                                               ; preds = %46
  %51 = getelementptr inbounds %"class.std::ctype", %"class.std::ctype"* %43, i64 0, i32 9, i64 10
  %52 = load i8, i8* %51, align 1, !tbaa !17
  br label %59

53:                                               ; preds = %46
  tail call void @_ZNKSt5ctypeIcE13_M_widen_initEv(%"class.std::ctype"* nonnull align 8 dereferenceable(570) %43)
  %54 = bitcast %"class.std::ctype"* %43 to i8 (%"class.std::ctype"*, i8)***
  %55 = load i8 (%"class.std::ctype"*, i8)**, i8 (%"class.std::ctype"*, i8)*** %54, align 8, !tbaa !9
  %56 = getelementptr inbounds i8 (%"class.std::ctype"*, i8)*, i8 (%"class.std::ctype"*, i8)** %55, i64 6
  %57 = load i8 (%"class.std::ctype"*, i8)*, i8 (%"class.std::ctype"*, i8)** %56, align 8
  %58 = tail call signext i8 %57(%"class.std::ctype"* nonnull align 8 dereferenceable(570) %43, i8 signext 10)
  br label %59

59:                                               ; preds = %50, %53
  %60 = phi i8 [ %52, %50 ], [ %58, %53 ]
  %61 = tail call nonnull align 8 dereferenceable(8) %"class.std::basic_ostream"* @_ZNSo3putEc(%"class.std::basic_ostream"* nonnull align 8 dereferenceable(8) %33, i8 signext %60)
  %62 = tail call nonnull align 8 dereferenceable(8) %"class.std::basic_ostream"* @_ZNSo5flushEv(%"class.std::basic_ostream"* nonnull align 8 dereferenceable(8) %61)
  br label %68

63:                                               ; preds = %28
  %64 = add nuw nsw i32 %11, 1
  %65 = sitofp i32 %64 to double
  %66 = fcmp ult double %5, %65
  br i1 %66, label %67, label %10, !llvm.loop !18

67:                                               ; preds = %63
  store i32 0, i32* @a, align 4, !tbaa !5
  store i32 %29, i32* @m, align 4, !tbaa !5
  br label %68

68:                                               ; preds = %0, %67, %59
  ret i32 0
}

declare nonnull align 8 dereferenceable(16) %"class.std::basic_istream"* @_ZNSirsERi(%"class.std::basic_istream"* nonnull align 8 dereferenceable(16), i32* nonnull align 4 dereferenceable(4)) local_unnamed_addr #0

declare nonnull align 8 dereferenceable(8) %"class.std::basic_ostream"* @_ZNSolsEi(%"class.std::basic_ostream"* nonnull align 8 dereferenceable(8), i32) local_unnamed_addr #0

; Function Attrs: mustprogress nofree nounwind willreturn
declare double @pow(double, double) local_unnamed_addr #5

declare nonnull align 8 dereferenceable(8) %"class.std::basic_ostream"* @_ZNSo3putEc(%"class.std::basic_ostream"* nonnull align 8 dereferenceable(8), i8 signext) local_unnamed_addr #0

declare nonnull align 8 dereferenceable(8) %"class.std::basic_ostream"* @_ZNSo5flushEv(%"class.std::basic_ostream"* nonnull align 8 dereferenceable(8)) local_unnamed_addr #0

; Function Attrs: noreturn
declare void @_ZSt16__throw_bad_castv() local_unnamed_addr #6

declare void @_ZNKSt5ctypeIcE13_M_widen_initEv(%"class.std::ctype"* nonnull align 8 dereferenceable(570)) local_unnamed_addr #0

; Function Attrs: sspstrong uwtable
define internal void @_GLOBAL__sub_I_1779.cpp() #7 section ".text.startup" {
  tail call void @_ZNSt8ios_base4InitC1Ev(%"class.std::ios_base::Init"* nonnull align 1 dereferenceable(1) @_ZStL8__ioinit)
  %1 = tail call i32 @__cxa_atexit(void (i8*)* bitcast (void (%"class.std::ios_base::Init"*)* @_ZNSt8ios_base4InitD1Ev to void (i8*)*), i8* getelementptr inbounds (%"class.std::ios_base::Init", %"class.std::ios_base::Init"* @_ZStL8__ioinit, i64 0, i32 0), i8* nonnull @__dso_handle) #8
  ret void
}


!llvm.module.flags = !{!0, !1, !2, !3}
!llvm.ident = !{!4}

!0 = !{i32 1, !"wchar_size", i32 4}
!1 = !{i32 7, !"PIC Level", i32 2}
!2 = !{i32 7, !"PIE Level", i32 2}
!3 = !{i32 7, !"uwtable", i32 1}
!4 = !{!"clang version 13.0.0"}
!5 = !{!6, !6, i64 0}
!6 = !{!"int", !7, i64 0}
!7 = !{!"omnipotent char", !8, i64 0}
!8 = !{!"Simple C++ TBAA"}
!9 = !{!10, !10, i64 0}
!10 = !{!"vtable pointer", !8, i64 0}
!11 = !{!12, !13, i64 240}
!12 = !{!"_ZTSSt9basic_iosIcSt11char_traitsIcEE", !13, i64 216, !7, i64 224, !14, i64 225, !13, i64 232, !13, i64 240, !13, i64 248, !13, i64 256}
!13 = !{!"any pointer", !7, i64 0}
!14 = !{!"bool", !7, i64 0}
!15 = !{!16, !7, i64 56}
!16 = !{!"_ZTSSt5ctypeIcE", !13, i64 16, !14, i64 24, !13, i64 32, !13, i64 40, !13, i64 48, !7, i64 56, !7, i64 57, !7, i64 313, !7, i64 569}
!17 = !{!7, !7, i64 0}
!18 = distinct !{!18, !19}
!19 = !{!"llvm.loop.mustprogress"}
